target datalayout = "e-m:e-p270:32:32-p271:32:32-p272:64:64-i64:64-i128:128-f80:128-n8:16:32:64-S128"
target triple = "x86_64-pc-linux-gnu"

%struct._zend_fcall_info_cache = type { ptr, ptr, ptr, ptr, ptr }
%struct._zval_struct = type { %union._zend_value, %union.anon.3, %union.anon.6 }
%union._zend_value = type { i64 }
%union.anon.3 = type { i32 }
%union.anon.6 = type { i32 }
%struct.stat = type { i64, i64, i64, i32, i32, i32, i32, i64, i64, i64, i64, %struct.timespec, %struct.timespec, %struct.timespec, [3 x i64] }
%struct.timespec = type { i64, i64 }
%struct._zend_array = type { %struct._zend_refcounted_h, %union.anon.0, i32, %union.anon.1, i32, i32, i32, i32, i64, ptr }
%struct._zend_refcounted_h = type { i32, %union.anon }
%union.anon = type { i32 }
%union.anon.0 = type { i32 }
%union.anon.1 = type { ptr }
%struct._zend_llist = type { ptr, ptr, i64, i64, ptr, i8, ptr }
%struct._sapi_globals_struct = type { ptr, %struct.sapi_request_info, %struct.sapi_headers_struct, i64, i8, i8, %struct.stat, ptr, ptr, ptr, i64, i32, i8, double, %struct._zend_array, %struct._zval_struct, %struct._zend_fcall_info_cache, %struct.sapi_request_parse_body_context }
%struct.sapi_request_info = type { ptr, ptr, ptr, i64, ptr, ptr, ptr, ptr, i8, i8, i8, ptr, ptr, ptr, ptr, ptr, ptr, ptr, i32, i32, ptr, i32 }
%struct.sapi_headers_struct = type { %struct._zend_llist, i32, i8, ptr, ptr }
%struct.sapi_request_parse_body_context = type { i8, [5 x %struct.anon.11] }
%struct.anon.11 = type { i8, i64 }
%struct._zend_string = type { %struct._zend_refcounted_h, i64, i64, [1 x i8] }
%struct._zend_execute_data = type { ptr, ptr, ptr, ptr, %struct._zval_struct, ptr, ptr, ptr, ptr }

@sapi_globals = external global %struct._sapi_globals_struct, align 8

; Function Attrs: nounwind uwtable
define hidden void @zif_is_uploaded_file(ptr noundef %0, ptr noundef %1) #0 {
  %3 = alloca ptr, align 8
  %4 = alloca i64, align 8
  %5 = alloca ptr, align 8
  %6 = alloca ptr, align 8
  %7 = alloca i1, align 1
  %8 = alloca ptr, align 8
  %9 = alloca ptr, align 8
  %10 = alloca i8, align 1
  %11 = alloca i32, align 4
  %12 = alloca i8, align 1
  %13 = alloca ptr, align 8
  %14 = alloca ptr, align 8
  %15 = alloca i64, align 8
  %16 = alloca ptr, align 8
  %17 = alloca ptr, align 8
  %18 = alloca i8, align 1
  %19 = alloca i32, align 4
  %20 = alloca i1, align 1
  %21 = alloca ptr, align 8
  %22 = alloca ptr, align 8
  %23 = alloca i8, align 1
  %24 = alloca i32, align 4
  %25 = alloca i1, align 1
  %26 = alloca ptr, align 8
  %27 = alloca ptr, align 8
  %28 = alloca ptr, align 8
  %29 = alloca i8, align 1
  %30 = alloca i32, align 4
  %31 = alloca ptr, align 8
  %32 = alloca ptr, align 8
  %33 = alloca ptr, align 8
  %34 = alloca ptr, align 8
  %35 = alloca i64, align 8
  %36 = alloca i32, align 4
  %37 = alloca i32, align 4
  %38 = alloca i32, align 4
  %39 = alloca i32, align 4
  %40 = alloca i32, align 4
  %41 = alloca ptr, align 8
  %42 = alloca ptr, align 8
  %43 = alloca i32, align 4
  %44 = alloca ptr, align 8
  %45 = alloca i8, align 1
  %46 = alloca i8, align 1
  %47 = alloca i32, align 4
  store ptr %0, ptr %32, align 8
  store ptr %1, ptr %33, align 8
  br label %48

48:                                               ; preds = %2
  store i32 0, ptr %36, align 4
  store i32 1, ptr %37, align 4
  store i32 1, ptr %38, align 4
  %49 = load ptr, ptr %32, align 8
  %50 = getelementptr inbounds %struct._zend_execute_data, ptr %49, i32 0, i32 4
  %51 = getelementptr inbounds %struct._zval_struct, ptr %50, i32 0, i32 2
  %52 = load i32, ptr %51, align 4
  store i32 %52, ptr %39, align 4
  store i32 0, ptr %40, align 4
  store ptr null, ptr %42, align 8
  store i32 0, ptr %43, align 4
  store ptr null, ptr %44, align 8
  store i8 0, ptr %45, align 1
  store i8 0, ptr %46, align 1
  store i32 0, ptr %47, align 4
  br label %53

53:                                               ; preds = %48
  %54 = load i32, ptr %39, align 4
  %55 = load i32, ptr %37, align 4
  %56 = icmp ult i32 %54, %55
  %57 = xor i1 %56, true
  %58 = xor i1 %57, true
  %59 = zext i1 %58 to i32
  %60 = sext i32 %59 to i64
  %61 = icmp ne i64 %60, 0
  br i1 %61, label %71, label %62

62:                                               ; preds = %53
  %63 = load i32, ptr %39, align 4
  %64 = load i32, ptr %38, align 4
  %65 = icmp ugt i32 %63, %64
  %66 = xor i1 %65, true
  %67 = xor i1 %66, true
  %68 = zext i1 %67 to i32
  %69 = sext i32 %68 to i64
  %70 = icmp ne i64 %69, 0
  br i1 %70, label %71, label %74

71:                                               ; preds = %62, %53
  %72 = load i32, ptr %37, align 4
  %73 = load i32, ptr %38, align 4
  call void @zend_wrong_parameters_count_error(i32 noundef %72, i32 noundef %73)
  store i32 1, ptr %47, align 4
  br label %231

74:                                               ; preds = %62
  %75 = load ptr, ptr %32, align 8
  %76 = getelementptr inbounds %struct._zval_struct, ptr %75, i64 4
  store ptr %76, ptr %41, align 8
  %77 = load i32, ptr %40, align 4
  %78 = add i32 %77, 1
  store i32 %78, ptr %40, align 4
  %79 = load i32, ptr %40, align 4
  %80 = load i32, ptr %37, align 4
  %81 = icmp ule i32 %79, %80
  br i1 %81, label %87, label %82

82:                                               ; preds = %74
  %83 = load i8, ptr %46, align 1
  %84 = trunc i8 %83 to i1
  %85 = zext i1 %84 to i32
  %86 = icmp eq i32 %85, 1
  br label %87

87:                                               ; preds = %82, %74
  %88 = phi i1 [ true, %74 ], [ %86, %82 ]
  call void @llvm.assume(i1 %88)
  %89 = load i32, ptr %40, align 4
  %90 = load i32, ptr %37, align 4
  %91 = icmp ugt i32 %89, %90
  br i1 %91, label %97, label %92

92:                                               ; preds = %87
  %93 = load i8, ptr %46, align 1
  %94 = trunc i8 %93 to i1
  %95 = zext i1 %94 to i32
  %96 = icmp eq i32 %95, 0
  br label %97

97:                                               ; preds = %92, %87
  %98 = phi i1 [ true, %87 ], [ %96, %92 ]
  call void @llvm.assume(i1 %98)
  %99 = load i8, ptr %46, align 1
  %100 = trunc i8 %99 to i1
  br i1 %100, label %101, label %112

101:                                              ; preds = %97
  %102 = load i32, ptr %40, align 4
  %103 = load i32, ptr %39, align 4
  %104 = icmp ugt i32 %102, %103
  %105 = xor i1 %104, true
  %106 = xor i1 %105, true
  %107 = zext i1 %106 to i32
  %108 = sext i32 %107 to i64
  %109 = icmp ne i64 %108, 0
  br i1 %109, label %110, label %111

110:                                              ; preds = %101
  br label %231

111:                                              ; preds = %101
  br label %112

112:                                              ; preds = %111, %97
  %113 = load ptr, ptr %41, align 8
  %114 = getelementptr inbounds %struct._zval_struct, ptr %113, i32 1
  store ptr %114, ptr %41, align 8
  %115 = load ptr, ptr %41, align 8
  store ptr %115, ptr %42, align 8
  %116 = load ptr, ptr %42, align 8
  %117 = load i32, ptr %40, align 4
  store ptr %116, ptr %26, align 8
  store ptr %34, ptr %27, align 8
  store ptr %35, ptr %28, align 8
  store i8 0, ptr %29, align 1
  store i32 %117, ptr %30, align 4
  %118 = load ptr, ptr %26, align 8
  %119 = load i8, ptr %29, align 1
  %120 = trunc i8 %119 to i1
  %121 = load i32, ptr %30, align 4
  store ptr %118, ptr %21, align 8
  store ptr %31, ptr %22, align 8
  %122 = zext i1 %120 to i8
  store i8 %122, ptr %23, align 1
  store i32 %121, ptr %24, align 4
  %123 = load ptr, ptr %21, align 8
  %124 = load ptr, ptr %22, align 8
  %125 = load i8, ptr %23, align 1
  %126 = trunc i8 %125 to i1
  %127 = load i32, ptr %24, align 4
  store ptr %123, ptr %16, align 8
  store ptr %124, ptr %17, align 8
  %128 = zext i1 %126 to i8
  store i8 %128, ptr %18, align 1
  store i32 %127, ptr %19, align 4
  %129 = load ptr, ptr %16, align 8
  %130 = load ptr, ptr %17, align 8
  %131 = load i8, ptr %18, align 1
  %132 = trunc i8 %131 to i1
  %133 = load i32, ptr %19, align 4
  store ptr %129, ptr %8, align 8
  store ptr %130, ptr %9, align 8
  %134 = zext i1 %132 to i8
  store i8 %134, ptr %10, align 1
  store i32 %133, ptr %11, align 4
  store i8 0, ptr %12, align 1
  %135 = load ptr, ptr %8, align 8
  store ptr %135, ptr %5, align 8
  %136 = load ptr, ptr %5, align 8
  %137 = getelementptr inbounds %struct._zval_struct, ptr %136, i32 0, i32 1
  %138 = load i8, ptr %137, align 8
  %139 = zext i8 %138 to i32
  %140 = icmp eq i32 %139, 6
  br i1 %140, label %141, label %145

141:                                              ; preds = %112
  %142 = load ptr, ptr %8, align 8
  %143 = load ptr, ptr %142, align 8
  %144 = load ptr, ptr %9, align 8
  store ptr %143, ptr %144, align 8
  br label %170

145:                                              ; preds = %112
  %146 = load i8, ptr %10, align 1
  %147 = trunc i8 %146 to i1
  br i1 %147, label %148, label %157

148:                                              ; preds = %145
  %149 = load ptr, ptr %8, align 8
  store ptr %149, ptr %6, align 8
  %150 = load ptr, ptr %6, align 8
  %151 = getelementptr inbounds %struct._zval_struct, ptr %150, i32 0, i32 1
  %152 = load i8, ptr %151, align 8
  %153 = zext i8 %152 to i32
  %154 = icmp eq i32 %153, 1
  br i1 %154, label %155, label %157

155:                                              ; preds = %148
  %156 = load ptr, ptr %9, align 8
  store ptr null, ptr %156, align 8
  br label %170

157:                                              ; preds = %148, %145
  %158 = load i8, ptr %12, align 1
  %159 = trunc i8 %158 to i1
  br i1 %159, label %160, label %165

160:                                              ; preds = %157
  %161 = load ptr, ptr %8, align 8
  %162 = load ptr, ptr %9, align 8
  %163 = load i32, ptr %11, align 4
  %164 = call zeroext i1 @zend_flf_parse_arg_str_slow(ptr noundef %161, ptr noundef %162, i32 noundef %163) #12
  store i1 %164, ptr %7, align 1
  br label %171

165:                                              ; preds = %157
  %166 = load ptr, ptr %8, align 8
  %167 = load ptr, ptr %9, align 8
  %168 = load i32, ptr %11, align 4
  %169 = call zeroext i1 @zend_parse_arg_str_slow(ptr noundef %166, ptr noundef %167, i32 noundef %168) #12
  store i1 %169, ptr %7, align 1
  br label %171

170:                                              ; preds = %155, %141
  store i1 true, ptr %7, align 1
  br label %171

171:                                              ; preds = %170, %165, %160
  %172 = load i1, ptr %7, align 1
  br i1 %172, label %173, label %189

173:                                              ; preds = %171
  %174 = load ptr, ptr %22, align 8
  %175 = load ptr, ptr %174, align 8
  %176 = icmp ne ptr %175, null
  br i1 %176, label %177, label %190

177:                                              ; preds = %173
  %178 = load ptr, ptr %22, align 8
  %179 = load ptr, ptr %178, align 8
  %180 = getelementptr inbounds %struct._zend_string, ptr %179, i32 0, i32 3
  %181 = load ptr, ptr %22, align 8
  %182 = load ptr, ptr %181, align 8
  %183 = getelementptr inbounds %struct._zend_string, ptr %182, i32 0, i32 2
  %184 = load i64, ptr %183, align 8
  store ptr %180, ptr %3, align 8
  store i64 %184, ptr %4, align 8
  %185 = load i64, ptr %4, align 8
  %186 = load ptr, ptr %3, align 8
  %187 = call i64 @strlen(ptr noundef %186) #13
  %188 = icmp ne i64 %185, %187
  br i1 %188, label %189, label %190

189:                                              ; preds = %177, %171
  store i1 false, ptr %20, align 1
  br label %191

190:                                              ; preds = %177, %173
  store i1 true, ptr %20, align 1
  br label %191

191:                                              ; preds = %190, %189
  %192 = load i1, ptr %20, align 1
  br i1 %192, label %194, label %193

193:                                              ; preds = %191
  store i1 false, ptr %25, align 1
  br label %213

194:                                              ; preds = %191
  %195 = load i8, ptr %29, align 1
  %196 = trunc i8 %195 to i1
  br i1 %196, label %197, label %204

197:                                              ; preds = %194
  %198 = load ptr, ptr %31, align 8
  %199 = icmp ne ptr %198, null
  %200 = xor i1 %199, true
  br i1 %200, label %201, label %204

201:                                              ; preds = %197
  %202 = load ptr, ptr %27, align 8
  store ptr null, ptr %202, align 8
  %203 = load ptr, ptr %28, align 8
  store i64 0, ptr %203, align 8
  br label %212

204:                                              ; preds = %197, %194
  %205 = load ptr, ptr %31, align 8
  %206 = getelementptr inbounds %struct._zend_string, ptr %205, i32 0, i32 3
  %207 = load ptr, ptr %27, align 8
  store ptr %206, ptr %207, align 8
  %208 = load ptr, ptr %31, align 8
  %209 = getelementptr inbounds %struct._zend_string, ptr %208, i32 0, i32 2
  %210 = load i64, ptr %209, align 8
  %211 = load ptr, ptr %28, align 8
  store i64 %210, ptr %211, align 8
  br label %212

212:                                              ; preds = %204, %201
  store i1 true, ptr %25, align 1
  br label %213

213:                                              ; preds = %212, %193
  %214 = load i1, ptr %25, align 1
  %215 = xor i1 %214, true
  %216 = xor i1 %215, true
  %217 = xor i1 %216, true
  %218 = zext i1 %217 to i32
  %219 = sext i32 %218 to i64
  %220 = icmp ne i64 %219, 0
  br i1 %220, label %221, label %222

221:                                              ; preds = %213
  store i32 16, ptr %43, align 4
  store i32 9, ptr %47, align 4
  br label %231

222:                                              ; preds = %213
  %223 = load i32, ptr %40, align 4
  %224 = load i32, ptr %38, align 4
  %225 = icmp eq i32 %223, %224
  br i1 %225, label %229, label %226

226:                                              ; preds = %222
  %227 = load i32, ptr %38, align 4
  %228 = icmp eq i32 %227, -1
  br label %229

229:                                              ; preds = %226, %222
  %230 = phi i1 [ true, %222 ], [ %228, %226 ]
  call void @llvm.assume(i1 %230)
  br label %231

231:                                              ; preds = %229, %221, %110, %71
  %232 = load i32, ptr %47, align 4
  %233 = icmp ne i32 %232, 0
  %234 = xor i1 %233, true
  %235 = xor i1 %234, true
  %236 = zext i1 %235 to i32
  %237 = sext i32 %236 to i64
  %238 = icmp ne i64 %237, 0
  br i1 %238, label %239, label %245

239:                                              ; preds = %231
  %240 = load i32, ptr %47, align 4
  %241 = load i32, ptr %40, align 4
  %242 = load ptr, ptr %44, align 8
  %243 = load i32, ptr %43, align 4
  %244 = load ptr, ptr %42, align 8
  call void @zend_wrong_parameter_error(i32 noundef %240, i32 noundef %241, ptr noundef %242, i32 noundef %243, ptr noundef %244)
  br label %279

245:                                              ; preds = %231
  br label %246

246:                                              ; preds = %245
  %247 = load ptr, ptr getelementptr inbounds (%struct._sapi_globals_struct, ptr @sapi_globals, i32 0, i32 9), align 8
  %248 = icmp ne ptr %247, null
  br i1 %248, label %256, label %249

249:                                              ; preds = %246
  br label %250

250:                                              ; preds = %249
  br label %251

251:                                              ; preds = %250
  %252 = load ptr, ptr %33, align 8
  %253 = getelementptr inbounds %struct._zval_struct, ptr %252, i32 0, i32 1
  store i32 2, ptr %253, align 8
  br label %254

254:                                              ; preds = %251
  br label %279

255:                                              ; No predecessors!
  br label %256

256:                                              ; preds = %255, %246
  %257 = load ptr, ptr getelementptr inbounds (%struct._sapi_globals_struct, ptr @sapi_globals, i32 0, i32 9), align 8
  %258 = load ptr, ptr %34, align 8
  %259 = load i64, ptr %35, align 8
  store ptr %257, ptr %13, align 8
  store ptr %258, ptr %14, align 8
  store i64 %259, ptr %15, align 8
  %260 = load ptr, ptr %13, align 8
  %261 = load ptr, ptr %14, align 8
  %262 = load i64, ptr %15, align 8
  %263 = call ptr @zend_hash_str_find(ptr noundef %260, ptr noundef %261, i64 noundef %262) #12
  %264 = icmp ne ptr %263, null
  br i1 %264, label %265, label %272

265:                                              ; preds = %256
  br label %266

266:                                              ; preds = %265
  br label %267

267:                                              ; preds = %266
  %268 = load ptr, ptr %33, align 8
  %269 = getelementptr inbounds %struct._zval_struct, ptr %268, i32 0, i32 1
  store i32 3, ptr %269, align 8
  br label %270

270:                                              ; preds = %267
  br label %279

271:                                              ; No predecessors!
  br label %279

272:                                              ; preds = %256
  br label %273

273:                                              ; preds = %272
  br label %274

274:                                              ; preds = %273
  %275 = load ptr, ptr %33, align 8
  %276 = getelementptr inbounds %struct._zval_struct, ptr %275, i32 0, i32 1
  store i32 2, ptr %276, align 8
  br label %277

277:                                              ; preds = %274
  br label %279

278:                                              ; No predecessors!
  br label %279

279:                                              ; preds = %278, %277, %271, %270, %254, %239
  ret void
}