; Function Attrs: nounwind uwtable
define hidden void @zif_is_uploaded_file(ptr noundef %0, ptr nocapture noundef writeonly %1) #0 {
  %3 = alloca ptr, align 8
  %4 = getelementptr inbounds i8, ptr %0, i64 44
  %5 = load i32, ptr %4, align 4
  %cond = icmp eq i32 %5, 1
  br i1 %cond, label %7, label %6

6:                                                ; preds = %2
  tail call void @zend_wrong_parameters_count_error(i32 noundef 1, i32 noundef 1) #18
  br label %.thread109

7:                                                ; preds = %2
  %8 = getelementptr inbounds i8, ptr %0, i64 80
  %9 = getelementptr inbounds i8, ptr %0, i64 88
  %10 = load i8, ptr %9, align 8
  %11 = icmp eq i8 %10, 6
  br i1 %11, label %.critedge, label %13

.critedge:                                        ; preds = %7
  %12 = load ptr, ptr %8, align 8
  store ptr %12, ptr %3, align 8
  br label %15

13:                                               ; preds = %7
  %14 = call zeroext i1 @zend_parse_arg_str_slow(ptr noundef nonnull %8, ptr noundef nonnull %3, i32 noundef 1) #18
  br i1 %14, label %thread-pre-split, label %.thread109

thread-pre-split:                                 ; preds = %13
  %.pr = load ptr, ptr %3, align 8
  br label %15

15:                                               ; preds = %thread-pre-split, %.critedge
  %16 = phi ptr [ %.pr, %thread-pre-split ], [ %12, %.critedge ]
  %.not89 = icmp eq ptr %16, null
  br i1 %.not89, label %22, label %17

17:                                               ; preds = %15
  %18 = getelementptr inbounds i8, ptr %16, i64 24
  %19 = getelementptr inbounds i8, ptr %16, i64 16
  %20 = load i64, ptr %19, align 8
  %21 = call i64 @strlen(ptr noundef nonnull dereferenceable(1) %18) #19
  %.not90 = icmp eq i64 %20, %21
  br i1 %.not90, label %22, label %.thread109

.thread109:                                       ; preds = %13, %17, %6
  %.080.ph = phi i32 [ 0, %6 ], [ 1, %17 ], [ 1, %13 ]
  %.079.ph = phi ptr [ null, %6 ], [ %8, %17 ], [ %8, %13 ]
  %.078.ph = phi i32 [ 0, %6 ], [ 16, %17 ], [ 16, %13 ]
  %.0.ph = phi i32 [ 1, %6 ], [ 9, %17 ], [ 9, %13 ]
  call void @zend_wrong_parameter_error(i32 noundef %.0.ph, i32 noundef %.080.ph, ptr noundef null, i32 noundef %.078.ph, ptr noundef %.079.ph) #18
  br label %34

22:                                               ; preds = %15, %17
  %23 = load ptr, ptr getelementptr inbounds (%struct._sapi_globals_struct, ptr @sapi_globals, i64 0, i32 9), align 8
  %.not92 = icmp eq ptr %23, null
  br i1 %.not92, label %24, label %26

24:                                               ; preds = %22
  %25 = getelementptr inbounds i8, ptr %1, i64 8
  store i32 2, ptr %25, align 8
  br label %34

26:                                               ; preds = %22
  %27 = getelementptr inbounds i8, ptr %16, i64 24
  %28 = getelementptr inbounds i8, ptr %16, i64 16
  %29 = load i64, ptr %28, align 8
  %30 = call ptr @zend_hash_str_find(ptr noundef nonnull %23, ptr noundef nonnull %27, i64 noundef %29) #18
  %.not93 = icmp eq ptr %30, null
  %31 = getelementptr inbounds i8, ptr %1, i64 8
  br i1 %.not93, label %33, label %32

32:                                               ; preds = %26
  store i32 3, ptr %31, align 8
  br label %34

33:                                               ; preds = %26
  store i32 2, ptr %31, align 8
  br label %34

34:                                               ; preds = %33, %32, %24, %.thread109
  ret void
}